; Function Attrs: mustprogress uwtable
define hidden void @_ZNK6google8protobuf8compiler3cpp18FieldGeneratorBase29GenerateMemberCopyConstructorEPNS0_2io7PrinterE(ptr nocapture noundef nonnull readonly align 8 dereferenceable(85) %this, ptr noundef %p) unnamed_addr #3 align 2 personality ptr @__gxx_personality_v0 {
entry:
  %ref.tmp3 = alloca %"class.absl::lts_20230802::log_internal::LogMessageFatal", align 8
  %descriptor_ = getelementptr inbounds i8, ptr %this, i64 8
  %0 = load ptr, ptr %descriptor_, align 8
  %is_extension_.i = getelementptr inbounds i8, ptr %0, i64 1
  %bf.load.i = load i8, ptr %is_extension_.i, align 1
  %1 = and i8 %bf.load.i, 8
  %bf.cast.i.not = icmp eq i8 %1, 0
  br i1 %bf.cast.i.not, label %cleanup.done, label %cond.false

cond.false:                                       ; preds = %entry
  call void @_ZN4absl12lts_2023080212log_internal15LogMessageFatalC1EPKciSt17basic_string_viewIcSt11char_traitsIcEE(ptr noundef nonnull align 8 dereferenceable(16) %ref.tmp3, ptr noundef nonnull @.str.32, i32 noundef 165, i64 28, ptr nonnull @.str.33) #26
  call void @_ZN4absl12lts_2023080212log_internal15LogMessageFatalD1Ev(ptr noundef nonnull align 8 dereferenceable(16) %ref.tmp3) #25
  unreachable

cleanup.done:                                     ; preds = %entry
  %2 = and i8 %bf.load.i, 96
  %cmp.i = icmp eq i8 %2, 96
  br i1 %cmp.i, label %if.then, label %if.else

if.then:                                          ; preds = %cleanup.done
  tail call void @_ZN6google8protobuf2io7Printer4EmitEN4absl12lts_202308024SpanIKNS2_3SubEEESt17basic_string_viewIcSt11char_traitsIcEENS2_14SourceLocationE(ptr noundef nonnull align 8 dereferenceable(256) %p, ptr null, i64 0, i64 40, ptr nonnull @.str.38)
  br label %if.end

if.else:                                          ; preds = %cleanup.done
  tail call void @_ZN6google8protobuf2io7Printer4EmitEN4absl12lts_202308024SpanIKNS2_3SubEEESt17basic_string_viewIcSt11char_traitsIcEENS2_14SourceLocationE(ptr noundef nonnull align 8 dereferenceable(256) %p, ptr null, i64 0, i64 21, ptr nonnull @.str.39)
  br label %if.end

if.end:                                           ; preds = %if.else, %if.then
  ret void
}